; Function Attrs: nounwind uwtable
define nonnull ptr @l_Array_isEqvAux___at_Lean_Elab_Term_elabCDotFunctionAlias_x3f___spec__31___boxed(ptr noundef %0, ptr noundef %1, ptr noundef readnone captures(none) %2, ptr noundef %3, ptr noundef %4, ptr noundef %5, ptr noundef readnone captures(none) %6) local_unnamed_addr #0 {
  %8 = tail call zeroext i8 @l_Array_isEqvAux___at_Lean_Elab_Term_elabCDotFunctionAlias_x3f___spec__31(ptr poison, ptr poison, ptr poison, ptr noundef %3, ptr noundef %4, ptr noundef %5, ptr poison)
  %9 = ptrtoint ptr %4 to i64
  %10 = and i64 %9, 1
  %.not = icmp eq i64 %10, 0
  br i1 %.not, label %11, label %lean_dec.exit14

11:                                               ; preds = %7
  %12 = load i32, ptr %4, align 4, !tbaa !4
  %13 = icmp sgt i32 %12, 1
  br i1 %13, label %14, label %16, !prof !9

14:                                               ; preds = %11
  %15 = add nsw i32 %12, -1
  store i32 %15, ptr %4, align 4, !tbaa !4
  br label %lean_dec.exit14

16:                                               ; preds = %11
  %.not.i = icmp eq i32 %12, 0
  br i1 %.not.i, label %lean_dec.exit14, label %17

17:                                               ; preds = %16
  tail call void @lean_dec_ref_cold(ptr noundef nonnull %4) #6
  br label %lean_dec.exit14

lean_dec.exit14:                                  ; preds = %17, %16, %14, %7
  %18 = ptrtoint ptr %3 to i64
  %19 = and i64 %18, 1
  %.not21 = icmp eq i64 %19, 0
  br i1 %.not21, label %20, label %lean_dec.exit13

20:                                               ; preds = %lean_dec.exit14
  %21 = load i32, ptr %3, align 4, !tbaa !4
  %22 = icmp sgt i32 %21, 1
  br i1 %22, label %23, label %25, !prof !9

23:                                               ; preds = %20
  %24 = add nsw i32 %21, -1
  store i32 %24, ptr %3, align 4, !tbaa !4
  br label %lean_dec.exit13

25:                                               ; preds = %20
  %.not.i15 = icmp eq i32 %21, 0
  br i1 %.not.i15, label %lean_dec.exit13, label %26

26:                                               ; preds = %25
  tail call void @lean_dec_ref_cold(ptr noundef nonnull %3) #6
  br label %lean_dec.exit13

lean_dec.exit13:                                  ; preds = %26, %25, %23, %lean_dec.exit14
  %27 = ptrtoint ptr %1 to i64
  %28 = and i64 %27, 1
  %.not22 = icmp eq i64 %28, 0
  br i1 %.not22, label %29, label %lean_dec.exit12

29:                                               ; preds = %lean_dec.exit13
  %30 = load i32, ptr %1, align 4, !tbaa !4
  %31 = icmp sgt i32 %30, 1
  br i1 %31, label %32, label %34, !prof !9

32:                                               ; preds = %29
  %33 = add nsw i32 %30, -1
  store i32 %33, ptr %1, align 4, !tbaa !4
  br label %lean_dec.exit12

34:                                               ; preds = %29
  %.not.i17 = icmp eq i32 %30, 0
  br i1 %.not.i17, label %lean_dec.exit12, label %35

35:                                               ; preds = %34
  tail call void @lean_dec_ref_cold(ptr noundef nonnull %1) #6
  br label %lean_dec.exit12

lean_dec.exit12:                                  ; preds = %35, %34, %32, %lean_dec.exit13
  %36 = ptrtoint ptr %0 to i64
  %37 = and i64 %36, 1
  %.not23 = icmp eq i64 %37, 0
  br i1 %.not23, label %38, label %lean_dec.exit

38:                                               ; preds = %lean_dec.exit12
  %39 = load i32, ptr %0, align 4, !tbaa !4
  %40 = icmp sgt i32 %39, 1
  br i1 %40, label %41, label %43, !prof !9

41:                                               ; preds = %38
  %42 = add nsw i32 %39, -1
  store i32 %42, ptr %0, align 4, !tbaa !4
  br label %lean_dec.exit

43:                                               ; preds = %38
  %.not.i19 = icmp eq i32 %39, 0
  br i1 %.not.i19, label %lean_dec.exit, label %44

44:                                               ; preds = %43
  tail call void @lean_dec_ref_cold(ptr noundef nonnull %0) #6
  br label %lean_dec.exit

lean_dec.exit:                                    ; preds = %44, %43, %41, %lean_dec.exit12
  %45 = shl nuw nsw i8 %8, 1
  %46 = or disjoint i8 %45, 1
  %47 = zext nneg i8 %46 to i64
  %48 = inttoptr i64 %47 to ptr
  ret ptr %48
}